; Function Attrs: mustprogress nofree norecurse nosync nounwind willreturn memory(argmem: readwrite) uwtable
define dso_local void @_ZN23btReducedDeformableBody19applyCentralImpulseERK9btVector3(ptr noundef nonnull align 8 captures(none) dereferenceable(3176) %0, ptr noundef nonnull readonly align 4 captures(none) dereferenceable(16) %1) local_unnamed_addr #18 align 2 {
  %3 = getelementptr inbounds nuw i8, ptr %0, i64 2400
  %4 = load float, ptr %1, align 4, !tbaa !138
  %5 = load float, ptr %3, align 8, !tbaa !138
  %6 = fmul float %4, %5
  %7 = getelementptr inbounds nuw i8, ptr %1, i64 4
  %8 = load float, ptr %7, align 4, !tbaa !138
  %9 = getelementptr inbounds nuw i8, ptr %0, i64 2404
  %10 = load float, ptr %9, align 4, !tbaa !138
  %11 = fmul float %8, %10
  %12 = getelementptr inbounds nuw i8, ptr %1, i64 8
  %13 = load float, ptr %12, align 4, !tbaa !138
  %14 = getelementptr inbounds nuw i8, ptr %0, i64 2408
  %15 = load float, ptr %14, align 8, !tbaa !138
  %16 = fmul float %13, %15
  %17 = getelementptr inbounds nuw i8, ptr %0, i64 2356
  %18 = load float, ptr %17, align 4, !tbaa !138
  %19 = fmul float %6, %18
  %20 = fmul float %11, %18
  %21 = fmul float %18, %16
  %22 = getelementptr inbounds nuw i8, ptr %0, i64 2360
  %23 = load float, ptr %22, align 8, !tbaa !138
  %24 = fadd float %19, %23
  store float %24, ptr %22, align 8, !tbaa !138
  %25 = getelementptr inbounds nuw i8, ptr %0, i64 2364
  %26 = load float, ptr %25, align 4, !tbaa !138
  %27 = fadd float %20, %26
  store float %27, ptr %25, align 4, !tbaa !138
  %28 = getelementptr inbounds nuw i8, ptr %0, i64 2368
  %29 = load float, ptr %28, align 8, !tbaa !138
  %30 = fadd float %21, %29
  store float %30, ptr %28, align 8, !tbaa !138
  ret void
}